target datalayout = "e-m:e-p270:32:32-p271:32:32-p272:64:64-i64:64-i128:128-f80:128-n8:16:32:64-S128"
target triple = "x86_64-pc-linux-gnu"

%struct.evp_cipher_ctx_st = type { ptr, ptr, i32, i32, [16 x i8], [16 x i8], [32 x i8], i32, ptr, i32, i32, i64, ptr, i32, i32, [32 x i8], i64, ptr, ptr }
%struct.evp_cipher_st = type { i32, i32, i32, i32, i64, i32, ptr, ptr, ptr, i32, ptr, ptr, ptr, ptr, i32, ptr, ptr, ptr, %struct.CRYPTO_REF_COUNT, ptr, ptr, ptr, ptr, ptr, ptr, ptr, ptr, ptr, ptr, ptr, ptr, ptr, ptr, ptr, ptr, ptr, ptr, ptr, ptr }
%struct.CRYPTO_REF_COUNT = type { i32 }

@.str = private unnamed_addr constant [32 x i8] c"../openssl/crypto/evp/evp_enc.c\00", align 1
@__func__.EVP_CipherPipelineUpdate = private unnamed_addr constant [25 x i8] c"EVP_CipherPipelineUpdate\00", align 1

; Function Attrs: nounwind uwtable
define i32 @EVP_CipherPipelineUpdate(ptr noundef %0, ptr noundef %1, ptr noundef %2, ptr noundef %3, ptr noundef %4, ptr noundef %5) #0 {
  %7 = alloca i32, align 4
  %8 = alloca ptr, align 8
  %9 = alloca ptr, align 8
  %10 = alloca ptr, align 8
  %11 = alloca ptr, align 8
  %12 = alloca ptr, align 8
  %13 = alloca ptr, align 8
  %14 = alloca i64, align 8
  %15 = alloca i32, align 4
  store ptr %0, ptr %8, align 8, !tbaa !3
  store ptr %1, ptr %9, align 8, !tbaa !61
  store ptr %2, ptr %10, align 8, !tbaa !70
  store ptr %3, ptr %11, align 8, !tbaa !70
  store ptr %4, ptr %12, align 8, !tbaa !61
  store ptr %5, ptr %13, align 8, !tbaa !70
  call void @llvm.lifetime.start.p0(i64 8, ptr %14) #9
  %16 = load ptr, ptr %10, align 8, !tbaa !70
  %17 = icmp eq ptr %16, null
  br i1 %17, label %21, label %18

18:                                               ; preds = %6
  %19 = load ptr, ptr %13, align 8, !tbaa !70
  %20 = icmp eq ptr %19, null
  br label %21

21:                                               ; preds = %18, %6
  %22 = phi i1 [ true, %6 ], [ %20, %18 ]
  %23 = xor i1 %22, true
  %24 = xor i1 %23, true
  %25 = zext i1 %24 to i32
  %26 = sext i32 %25 to i64
  %27 = call i64 @llvm.expect.i64(i64 %26, i64 0)
  %28 = icmp ne i64 %27, 0
  br i1 %28, label %29, label %30

29:                                               ; preds = %21
  call void @ERR_new()
  call void @ERR_set_debug(ptr noundef @.str, i32 noundef 726, ptr noundef @__func__.EVP_CipherPipelineUpdate)
  call void (i32, i32, ptr, ...) @ERR_set_error(i32 noundef 6, i32 noundef 786690, ptr noundef null)
  store i32 0, ptr %7, align 4
  store i32 1, ptr %15, align 4
  br label %102

30:                                               ; preds = %21
  %31 = load ptr, ptr %8, align 8, !tbaa !3
  %32 = getelementptr inbounds nuw %struct.evp_cipher_ctx_st, ptr %31, i32 0, i32 0
  %33 = load ptr, ptr %32, align 8, !tbaa !8
  %34 = icmp eq ptr %33, null
  %35 = xor i1 %34, true
  %36 = xor i1 %35, true
  %37 = zext i1 %36 to i32
  %38 = sext i32 %37 to i64
  %39 = call i64 @llvm.expect.i64(i64 %38, i64 0)
  %40 = icmp ne i64 %39, 0
  br i1 %40, label %41, label %42

41:                                               ; preds = %30
  call void @ERR_new()
  call void @ERR_set_debug(ptr noundef @.str, i32 noundef 731, ptr noundef @__func__.EVP_CipherPipelineUpdate)
  call void (i32, i32, ptr, ...) @ERR_set_error(i32 noundef 6, i32 noundef 131, ptr noundef null)
  store i32 0, ptr %7, align 4
  store i32 1, ptr %15, align 4
  br label %102

42:                                               ; preds = %30
  %43 = load ptr, ptr %8, align 8, !tbaa !3
  %44 = getelementptr inbounds nuw %struct.evp_cipher_ctx_st, ptr %43, i32 0, i32 0
  %45 = load ptr, ptr %44, align 8, !tbaa !8
  %46 = getelementptr inbounds nuw %struct.evp_cipher_st, ptr %45, i32 0, i32 17
  %47 = load ptr, ptr %46, align 8, !tbaa !14
  %48 = icmp eq ptr %47, null
  %49 = xor i1 %48, true
  %50 = xor i1 %49, true
  %51 = zext i1 %50 to i32
  %52 = sext i32 %51 to i64
  %53 = call i64 @llvm.expect.i64(i64 %52, i64 0)
  %54 = icmp ne i64 %53, 0
  br i1 %54, label %55, label %56

55:                                               ; preds = %42
  call void @ERR_new()
  call void @ERR_set_debug(ptr noundef @.str, i32 noundef 736, ptr noundef @__func__.EVP_CipherPipelineUpdate)
  call void (i32, i32, ptr, ...) @ERR_set_error(i32 noundef 6, i32 noundef 148, ptr noundef null)
  store i32 0, ptr %7, align 4
  store i32 1, ptr %15, align 4
  br label %102

56:                                               ; preds = %42
  %57 = load ptr, ptr %8, align 8, !tbaa !3
  %58 = getelementptr inbounds nuw %struct.evp_cipher_ctx_st, ptr %57, i32 0, i32 0
  %59 = load ptr, ptr %58, align 8, !tbaa !8
  %60 = getelementptr inbounds nuw %struct.evp_cipher_st, ptr %59, i32 0, i32 27
  %61 = load ptr, ptr %60, align 8, !tbaa !72
  %62 = icmp eq ptr %61, null
  %63 = xor i1 %62, true
  %64 = xor i1 %63, true
  %65 = zext i1 %64 to i32
  %66 = sext i32 %65 to i64
  %67 = call i64 @llvm.expect.i64(i64 %66, i64 0)
  %68 = icmp ne i64 %67, 0
  br i1 %68, label %69, label %70

69:                                               ; preds = %56
  call void @ERR_new()
  call void @ERR_set_debug(ptr noundef @.str, i32 noundef 741, ptr noundef @__func__.EVP_CipherPipelineUpdate)
  call void (i32, i32, ptr, ...) @ERR_set_error(i32 noundef 6, i32 noundef 189, ptr noundef null)
  store i32 0, ptr %7, align 4
  store i32 1, ptr %15, align 4
  br label %102

70:                                               ; preds = %56
  store i64 0, ptr %14, align 8, !tbaa !33
  br label %71

71:                                               ; preds = %81, %70
  %72 = load i64, ptr %14, align 8, !tbaa !33
  %73 = load ptr, ptr %8, align 8, !tbaa !3
  %74 = getelementptr inbounds nuw %struct.evp_cipher_ctx_st, ptr %73, i32 0, i32 16
  %75 = load i64, ptr %74, align 8, !tbaa !63
  %76 = icmp ult i64 %72, %75
  br i1 %76, label %77, label %84

77:                                               ; preds = %71
  %78 = load ptr, ptr %10, align 8, !tbaa !70
  %79 = load i64, ptr %14, align 8, !tbaa !33
  %80 = getelementptr inbounds nuw i64, ptr %78, i64 %79
  store i64 0, ptr %80, align 8, !tbaa !33
  br label %81

81:                                               ; preds = %77
  %82 = load i64, ptr %14, align 8, !tbaa !33
  %83 = add i64 %82, 1
  store i64 %83, ptr %14, align 8, !tbaa !33
  br label %71, !llvm.loop !73

84:                                               ; preds = %71
  %85 = load ptr, ptr %8, align 8, !tbaa !3
  %86 = getelementptr inbounds nuw %struct.evp_cipher_ctx_st, ptr %85, i32 0, i32 0
  %87 = load ptr, ptr %86, align 8, !tbaa !8
  %88 = getelementptr inbounds nuw %struct.evp_cipher_st, ptr %87, i32 0, i32 27
  %89 = load ptr, ptr %88, align 8, !tbaa !72
  %90 = load ptr, ptr %8, align 8, !tbaa !3
  %91 = getelementptr inbounds nuw %struct.evp_cipher_ctx_st, ptr %90, i32 0, i32 17
  %92 = load ptr, ptr %91, align 8, !tbaa !19
  %93 = load ptr, ptr %8, align 8, !tbaa !3
  %94 = getelementptr inbounds nuw %struct.evp_cipher_ctx_st, ptr %93, i32 0, i32 16
  %95 = load i64, ptr %94, align 8, !tbaa !63
  %96 = load ptr, ptr %9, align 8, !tbaa !61
  %97 = load ptr, ptr %10, align 8, !tbaa !70
  %98 = load ptr, ptr %11, align 8, !tbaa !70
  %99 = load ptr, ptr %12, align 8, !tbaa !61
  %100 = load ptr, ptr %13, align 8, !tbaa !70
  %101 = call i32 %89(ptr noundef %92, i64 noundef %95, ptr noundef %96, ptr noundef %97, ptr noundef %98, ptr noundef %99, ptr noundef %100)
  store i32 %101, ptr %7, align 4
  store i32 1, ptr %15, align 4
  br label %102

102:                                              ; preds = %84, %69, %55, %41, %29
  call void @llvm.lifetime.end.p0(i64 8, ptr %14) #9
  %103 = load i32, ptr %7, align 4
  ret i32 %103
}