; Function Attrs: nounwind uwtable
define i32 @EVP_CipherPipelineUpdate(ptr noundef readonly captures(none) %0, ptr noundef %1, ptr noundef %2, ptr noundef %3, ptr noundef %4, ptr noundef %5) local_unnamed_addr #0 {
  %7 = icmp eq ptr %2, null
  %8 = icmp eq ptr %5, null
  %9 = or i1 %7, %8
  br i1 %9, label %10, label %11, !prof !61

10:                                               ; preds = %6
  tail call void @ERR_new() #10
  tail call void @ERR_set_debug(ptr noundef nonnull @.str, i32 noundef 726, ptr noundef nonnull @__func__.EVP_CipherPipelineUpdate) #10
  tail call void (i32, i32, ptr, ...) @ERR_set_error(i32 noundef 6, i32 noundef 786690, ptr noundef null) #10
  br label %34

11:                                               ; preds = %6
  %12 = load ptr, ptr %0, align 8, !tbaa !3
  %13 = icmp eq ptr %12, null
  br i1 %13, label %14, label %15, !prof !61

14:                                               ; preds = %11
  tail call void @ERR_new() #10
  tail call void @ERR_set_debug(ptr noundef nonnull @.str, i32 noundef 731, ptr noundef nonnull @__func__.EVP_CipherPipelineUpdate) #10
  tail call void (i32, i32, ptr, ...) @ERR_set_error(i32 noundef 6, i32 noundef 131, ptr noundef null) #10
  br label %34

15:                                               ; preds = %11
  %16 = getelementptr inbounds nuw i8, ptr %12, i64 120
  %17 = load ptr, ptr %16, align 8, !tbaa !12
  %18 = icmp eq ptr %17, null
  br i1 %18, label %19, label %20, !prof !61

19:                                               ; preds = %15
  tail call void @ERR_new() #10
  tail call void @ERR_set_debug(ptr noundef nonnull @.str, i32 noundef 736, ptr noundef nonnull @__func__.EVP_CipherPipelineUpdate) #10
  tail call void (i32, i32, ptr, ...) @ERR_set_error(i32 noundef 6, i32 noundef 148, ptr noundef null) #10
  br label %34

20:                                               ; preds = %15
  %21 = getelementptr inbounds nuw i8, ptr %12, i64 200
  %22 = load ptr, ptr %21, align 8, !tbaa !48
  %23 = icmp eq ptr %22, null
  br i1 %23, label %26, label %.preheader, !prof !61

.preheader:                                       ; preds = %20
  %24 = getelementptr inbounds nuw i8, ptr %0, i64 168
  %25 = load i64, ptr %24, align 8, !tbaa !60
  %.not = icmp eq i64 %25, 0
  br i1 %.not, label %._crit_edge, label %.lr.ph

26:                                               ; preds = %20
  tail call void @ERR_new() #10
  tail call void @ERR_set_debug(ptr noundef nonnull @.str, i32 noundef 741, ptr noundef nonnull @__func__.EVP_CipherPipelineUpdate) #10
  tail call void (i32, i32, ptr, ...) @ERR_set_error(i32 noundef 6, i32 noundef 189, ptr noundef null) #10
  br label %34

.lr.ph:                                           ; preds = %.preheader, %.lr.ph
  %.023 = phi i64 [ %28, %.lr.ph ], [ 0, %.preheader ]
  %27 = getelementptr inbounds nuw i64, ptr %2, i64 %.023
  store i64 0, ptr %27, align 8, !tbaa !39
  %28 = add nuw i64 %.023, 1
  %29 = load i64, ptr %24, align 8, !tbaa !60
  %30 = icmp ult i64 %28, %29
  br i1 %30, label %.lr.ph, label %._crit_edge, !llvm.loop !65

._crit_edge:                                      ; preds = %.lr.ph, %.preheader
  %.lcssa = phi i64 [ 0, %.preheader ], [ %29, %.lr.ph ]
  %31 = getelementptr inbounds nuw i8, ptr %0, i64 176
  %32 = load ptr, ptr %31, align 8, !tbaa !17
  %33 = tail call i32 %22(ptr noundef %32, i64 noundef %.lcssa, ptr noundef %1, ptr noundef nonnull %2, ptr noundef %3, ptr noundef %4, ptr noundef %5) #10
  br label %34

34:                                               ; preds = %._crit_edge, %26, %19, %14, %10
  %.018 = phi i32 [ 0, %10 ], [ 0, %14 ], [ 0, %19 ], [ 0, %26 ], [ %33, %._crit_edge ]
  ret i32 %.018
}